target datalayout = "e-m:e-p270:32:32-p271:32:32-p272:64:64-i64:64-i128:128-f80:128-n8:16:32:64-S128"
target triple = "x86_64-unknown-linux-gnu"

%"class.zmq::io_object_t" = type { %"struct.zmq::i_poll_events", ptr }
%"struct.zmq::i_poll_events" = type { ptr }
%"struct.zmq::i_engine" = type { ptr }
%"struct.zmq::options_t" = type { i32, i32, i64, i8, [256 x i8], i32, i32, i32, i32, i32, i32, i32, i32, i8, %"struct.zmq::atomic_value_t", i32, i32, i32, i32, i32, i32, i64, i32, i32, i8, i32, i8, i8, i8, i8, i8, %"class.std::__cxx11::basic_string", %"class.std::__cxx11::basic_string", %"class.std::__cxx11::basic_string", i32, i32, i32, i32, %"class.std::vector", %"class.std::set", %"class.std::set", %"class.std::set.6", i32, i32, %"class.std::__cxx11::basic_string", %"class.std::__cxx11::basic_string", %"class.std::__cxx11::basic_string", [32 x i8], [32 x i8], [32 x i8], %"class.std::__cxx11::basic_string", %"class.std::__cxx11::basic_string", i32, i32, i8, i32, i8, i32, i8, i16, i32, i32, i32, %"class.std::__cxx11::basic_string", i8, i8, i8, i32, i32, i8, i32, %"class.std::map", i32, %"class.std::__cxx11::basic_string", %"class.std::__cxx11::basic_string", %"class.std::__cxx11::basic_string", %"class.std::__cxx11::basic_string", i8, %"class.std::vector.21", i8, %"class.std::vector.21", i8, %"class.std::vector.21", i8, i32, i8, i32, i32, i32, i32, i32, i8, i32 }
%"struct.zmq::atomic_value_t" = type { %"struct.std::atomic" }
%"struct.std::atomic" = type { %"struct.std::__atomic_base" }
%"struct.std::__atomic_base" = type { i32 }
%"class.std::vector" = type { %"struct.std::_Vector_base" }
%"struct.std::_Vector_base" = type { %"struct.std::_Vector_base<zmq::tcp_address_mask_t, std::allocator<zmq::tcp_address_mask_t>>::_Vector_impl" }
%"struct.std::_Vector_base<zmq::tcp_address_mask_t, std::allocator<zmq::tcp_address_mask_t>>::_Vector_impl" = type { %"struct.std::_Vector_base<zmq::tcp_address_mask_t, std::allocator<zmq::tcp_address_mask_t>>::_Vector_impl_data" }
%"struct.std::_Vector_base<zmq::tcp_address_mask_t, std::allocator<zmq::tcp_address_mask_t>>::_Vector_impl_data" = type { ptr, ptr, ptr }
%"class.std::set" = type { %"class.std::_Rb_tree" }
%"class.std::_Rb_tree" = type { %"struct.std::_Rb_tree<unsigned int, unsigned int, std::_Identity<unsigned int>, std::less<unsigned int>>::_Rb_tree_impl" }
%"struct.std::_Rb_tree<unsigned int, unsigned int, std::_Identity<unsigned int>, std::less<unsigned int>>::_Rb_tree_impl" = type { %"struct.std::_Rb_tree_key_compare", %"struct.std::_Rb_tree_header" }
%"struct.std::_Rb_tree_key_compare" = type { %"struct.std::less" }
%"struct.std::less" = type { i8 }
%"struct.std::_Rb_tree_header" = type { %"struct.std::_Rb_tree_node_base", i64 }
%"struct.std::_Rb_tree_node_base" = type { i32, ptr, ptr, ptr }
%"class.std::set.6" = type { %"class.std::_Rb_tree.7" }
%"class.std::_Rb_tree.7" = type { %"struct.std::_Rb_tree<int, int, std::_Identity<int>, std::less<int>>::_Rb_tree_impl" }
%"struct.std::_Rb_tree<int, int, std::_Identity<int>, std::less<int>>::_Rb_tree_impl" = type { %"struct.std::_Rb_tree_key_compare.11", %"struct.std::_Rb_tree_header" }
%"struct.std::_Rb_tree_key_compare.11" = type { %"struct.std::less.12" }
%"struct.std::less.12" = type { i8 }
%"class.std::map" = type { %"class.std::_Rb_tree.14" }
%"class.std::_Rb_tree.14" = type { %"struct.std::_Rb_tree<std::__cxx11::basic_string<char>, std::pair<const std::__cxx11::basic_string<char>, std::__cxx11::basic_string<char>>, std::_Select1st<std::pair<const std::__cxx11::basic_string<char>, std::__cxx11::basic_string<char>>>, std::less<std::__cxx11::basic_string<char>>>::_Rb_tree_impl" }
%"struct.std::_Rb_tree<std::__cxx11::basic_string<char>, std::pair<const std::__cxx11::basic_string<char>, std::__cxx11::basic_string<char>>, std::_Select1st<std::pair<const std::__cxx11::basic_string<char>, std::__cxx11::basic_string<char>>>, std::less<std::__cxx11::basic_string<char>>>::_Rb_tree_impl" = type { %"struct.std::_Rb_tree_key_compare.18", %"struct.std::_Rb_tree_header" }
%"struct.std::_Rb_tree_key_compare.18" = type { %"struct.std::less.19" }
%"struct.std::less.19" = type { i8 }
%"class.std::vector.21" = type { %"struct.std::_Vector_base.22" }
%"struct.std::_Vector_base.22" = type { %"struct.std::_Vector_base<unsigned char, std::allocator<unsigned char>>::_Vector_impl" }
%"struct.std::_Vector_base<unsigned char, std::allocator<unsigned char>>::_Vector_impl" = type { %"struct.std::_Vector_base<unsigned char, std::allocator<unsigned char>>::_Vector_impl_data" }
%"struct.std::_Vector_base<unsigned char, std::allocator<unsigned char>>::_Vector_impl_data" = type { ptr, ptr, ptr }
%"struct.zmq::endpoint_uri_pair_t" = type <{ %"class.std::__cxx11::basic_string", %"class.std::__cxx11::basic_string", i32, [4 x i8] }>
%"class.std::__cxx11::basic_string" = type { %"struct.std::__cxx11::basic_string<char>::_Alloc_hider", i64, %union.anon }
%"struct.std::__cxx11::basic_string<char>::_Alloc_hider" = type { ptr }
%union.anon = type { i64, [8 x i8] }
%"class.zmq::msg_t" = type { %union.anon.26 }
%union.anon.26 = type { %struct.anon }
%struct.anon = type { ptr, [34 x i8], i8, i8, i32, %"union.zmq::msg_t::group_t" }
%"union.zmq::msg_t::group_t" = type { %struct.anon.28 }
%struct.anon.28 = type { i8, ptr }
%"class.zmq::stream_engine_base_t" = type <{ %"class.zmq::io_object_t", %"struct.zmq::i_engine", %"struct.zmq::options_t", ptr, i64, ptr, ptr, i64, ptr, ptr, { i64, i64 }, { i64, i64 }, ptr, i8, i8, [6 x i8], %"struct.zmq::endpoint_uri_pair_t", i8, i8, i8, i8, [4 x i8], %"class.std::__cxx11::basic_string", i32, [4 x i8], ptr, i8, i8, [6 x i8], %"class.zmq::msg_t", i8, [7 x i8], ptr, ptr, i8, [7 x i8] }>

@stderr = external global ptr, align 8
@.str.5 = private unnamed_addr constant [109 x i8] c"generated/home/dtcxzyw/WorkSpace/Projects/compilers/llvm-opt-benchmark/bench/libzmq/libzmq/src/ws_engine.cpp\00", align 1
@.str.18 = private unnamed_addr constant [30 x i8] c"Assertion failed: %s (%s:%d)\0A\00", align 1
@.str.19 = private unnamed_addr constant [19 x i8] c"_mechanism != NULL\00", align 1

; Function Attrs: mustprogress nounwind uwtable
define linkonce_odr noundef ptr @_ZN3zmq20stream_engine_base_t7sessionEv(ptr noundef nonnull align 8 dereferenceable(1689) %this) #3 comdat align 2 {
entry:
  %this.addr = alloca ptr, align 8
  store ptr %this, ptr %this.addr, align 8
  %this1 = load ptr, ptr %this.addr, align 8
  %_session = getelementptr inbounds %"class.zmq::stream_engine_base_t", ptr %this1, i32 0, i32 32
  %0 = load ptr, ptr %_session, align 8
  ret ptr %0
}

; Function Attrs: mustprogress uwtable
define noundef i32 @_ZN3zmq11ws_engine_t15decode_and_pushEPNS_5msg_tE(ptr noundef nonnull align 8 dereferenceable(25696) %this, ptr noundef %msg_) unnamed_addr #0 align 2 {
entry:
  %retval = alloca i32, align 4
  %this.addr = alloca ptr, align 8
  %msg_.addr = alloca ptr, align 8
  store ptr %this, ptr %this.addr, align 8
  store ptr %msg_, ptr %msg_.addr, align 8
  %this1 = load ptr, ptr %this.addr, align 8
  br label %do.body

do.body:                                          ; preds = %entry
  %_mechanism = getelementptr inbounds %"class.zmq::stream_engine_base_t", ptr %this1, i32 0, i32 9
  %0 = load ptr, ptr %_mechanism, align 8
  %cmp = icmp ne ptr %0, null
  %lnot = xor i1 %cmp, true
  br i1 %lnot, label %if.then, label %if.end

if.then:                                          ; preds = %do.body
  %1 = load ptr, ptr @stderr, align 8
  %call = call i32 (ptr, ptr, ...) @fprintf(ptr noundef %1, ptr noundef @.str.18, ptr noundef @.str.19, ptr noundef @.str.5, i32 noundef 888)
  %2 = load ptr, ptr @stderr, align 8
  %call2 = call i32 @fflush(ptr noundef %2)
  call void @_ZN3zmq9zmq_abortEPKc(ptr noundef @.str.19)
  br label %if.end

if.end:                                           ; preds = %if.then, %do.body
  br label %do.end

do.end:                                           ; preds = %if.end
  %3 = load ptr, ptr %msg_.addr, align 8
  %call3 = call noundef zeroext i1 @_ZNK3zmq5msg_t7is_pingEv(ptr noundef nonnull align 8 dereferenceable(64) %3)
  br i1 %call3, label %if.then7, label %lor.lhs.false

lor.lhs.false:                                    ; preds = %do.end
  %4 = load ptr, ptr %msg_.addr, align 8
  %call4 = call noundef zeroext i1 @_ZNK3zmq5msg_t7is_pongEv(ptr noundef nonnull align 8 dereferenceable(64) %4)
  br i1 %call4, label %if.then7, label %lor.lhs.false5

lor.lhs.false5:                                   ; preds = %lor.lhs.false
  %5 = load ptr, ptr %msg_.addr, align 8
  %call6 = call noundef zeroext i1 @_ZNK3zmq5msg_t12is_close_cmdEv(ptr noundef nonnull align 8 dereferenceable(64) %5)
  br i1 %call6, label %if.then7, label %if.else

if.then7:                                         ; preds = %lor.lhs.false5, %lor.lhs.false, %do.end
  %6 = load ptr, ptr %msg_.addr, align 8
  %vtable = load ptr, ptr %this1, align 8
  %vfn = getelementptr inbounds ptr, ptr %vtable, i64 16
  %7 = load ptr, ptr %vfn, align 8
  %call8 = call noundef i32 %7(ptr noundef nonnull align 8 dereferenceable(25696) %this1, ptr noundef %6)
  %cmp9 = icmp eq i32 %call8, -1
  br i1 %cmp9, label %if.then10, label %if.end11

if.then10:                                        ; preds = %if.then7
  store i32 -1, ptr %retval, align 4
  br label %return

if.end11:                                         ; preds = %if.then7
  br label %if.end19

if.else:                                          ; preds = %lor.lhs.false5
  %_mechanism12 = getelementptr inbounds %"class.zmq::stream_engine_base_t", ptr %this1, i32 0, i32 9
  %8 = load ptr, ptr %_mechanism12, align 8
  %9 = load ptr, ptr %msg_.addr, align 8
  %vtable13 = load ptr, ptr %8, align 8
  %vfn14 = getelementptr inbounds ptr, ptr %vtable13, i64 5
  %10 = load ptr, ptr %vfn14, align 8
  %call15 = call noundef i32 %10(ptr noundef nonnull align 8 dereferenceable(1488) %8, ptr noundef %9)
  %cmp16 = icmp eq i32 %call15, -1
  br i1 %cmp16, label %if.then17, label %if.end18

if.then17:                                        ; preds = %if.else
  store i32 -1, ptr %retval, align 4
  br label %return

if.end18:                                         ; preds = %if.else
  br label %if.end19

if.end19:                                         ; preds = %if.end18, %if.end11
  %_has_timeout_timer = getelementptr inbounds %"class.zmq::stream_engine_base_t", ptr %this1, i32 0, i32 19
  %11 = load i8, ptr %_has_timeout_timer, align 2
  %tobool = trunc i8 %11 to i1
  br i1 %tobool, label %if.then20, label %if.end22

if.then20:                                        ; preds = %if.end19
  %_has_timeout_timer21 = getelementptr inbounds %"class.zmq::stream_engine_base_t", ptr %this1, i32 0, i32 19
  store i8 0, ptr %_has_timeout_timer21, align 2
  call void @_ZN3zmq11io_object_t12cancel_timerEi(ptr noundef nonnull align 8 dereferenceable(16) %this1, i32 noundef 129)
  br label %if.end22

if.end22:                                         ; preds = %if.then20, %if.end19
  %12 = load ptr, ptr %msg_.addr, align 8
  %call23 = call noundef zeroext i8 @_ZNK3zmq5msg_t5flagsEv(ptr noundef nonnull align 8 dereferenceable(64) %12)
  %conv = zext i8 %call23 to i32
  %and = and i32 %conv, 2
  %tobool24 = icmp ne i32 %and, 0
  br i1 %tobool24, label %land.lhs.true, label %if.end34

land.lhs.true:                                    ; preds = %if.end22
  %13 = load ptr, ptr %msg_.addr, align 8
  %call25 = call noundef zeroext i1 @_ZNK3zmq5msg_t7is_pingEv(ptr noundef nonnull align 8 dereferenceable(64) %13)
  br i1 %call25, label %if.end34, label %land.lhs.true26

land.lhs.true26:                                  ; preds = %land.lhs.true
  %14 = load ptr, ptr %msg_.addr, align 8
  %call27 = call noundef zeroext i1 @_ZNK3zmq5msg_t7is_pongEv(ptr noundef nonnull align 8 dereferenceable(64) %14)
  br i1 %call27, label %if.end34, label %land.lhs.true28

land.lhs.true28:                                  ; preds = %land.lhs.true26
  %15 = load ptr, ptr %msg_.addr, align 8
  %call29 = call noundef zeroext i1 @_ZNK3zmq5msg_t12is_close_cmdEv(ptr noundef nonnull align 8 dereferenceable(64) %15)
  br i1 %call29, label %if.end34, label %if.then30

if.then30:                                        ; preds = %land.lhs.true28
  %16 = load ptr, ptr %msg_.addr, align 8
  %vtable31 = load ptr, ptr %this1, align 8
  %vfn32 = getelementptr inbounds ptr, ptr %vtable31, i64 16
  %17 = load ptr, ptr %vfn32, align 8
  %call33 = call noundef i32 %17(ptr noundef nonnull align 8 dereferenceable(25696) %this1, ptr noundef %16)
  br label %if.end34

if.end34:                                         ; preds = %if.then30, %land.lhs.true28, %land.lhs.true26, %land.lhs.true, %if.end22
  %_metadata = getelementptr inbounds %"class.zmq::stream_engine_base_t", ptr %this1, i32 0, i32 12
  %18 = load ptr, ptr %_metadata, align 8
  %tobool35 = icmp ne ptr %18, null
  br i1 %tobool35, label %if.then36, label %if.end38

if.then36:                                        ; preds = %if.end34
  %19 = load ptr, ptr %msg_.addr, align 8
  %_metadata37 = getelementptr inbounds %"class.zmq::stream_engine_base_t", ptr %this1, i32 0, i32 12
  %20 = load ptr, ptr %_metadata37, align 8
  call void @_ZN3zmq5msg_t12set_metadataEPNS_10metadata_tE(ptr noundef nonnull align 8 dereferenceable(64) %19, ptr noundef %20)
  br label %if.end38

if.end38:                                         ; preds = %if.then36, %if.end34
  %call39 = call noundef ptr @_ZN3zmq20stream_engine_base_t7sessionEv(ptr noundef nonnull align 8 dereferenceable(1689) %this1)
  %21 = load ptr, ptr %msg_.addr, align 8
  %vtable40 = load ptr, ptr %call39, align 8
  %vfn41 = getelementptr inbounds ptr, ptr %vtable40, i64 29
  %22 = load ptr, ptr %vfn41, align 8
  %call42 = call noundef i32 %22(ptr noundef nonnull align 8 dereferenceable(1624) %call39, ptr noundef %21)
  %cmp43 = icmp eq i32 %call42, -1
  br i1 %cmp43, label %if.then44, label %if.end49

if.then44:                                        ; preds = %if.end38
  %call45 = call ptr @__errno_location() #16
  %23 = load i32, ptr %call45, align 4
  %cmp46 = icmp eq i32 %23, 11
  br i1 %cmp46, label %if.then47, label %if.end48

if.then47:                                        ; preds = %if.then44
  %_process_msg = getelementptr inbounds %"class.zmq::stream_engine_base_t", ptr %this1, i32 0, i32 11
  store { i64, i64 } { i64 ptrtoint (ptr @_ZN3zmq20stream_engine_base_t29push_one_then_decode_and_pushEPNS_5msg_tE to i64), i64 0 }, ptr %_process_msg, align 8
  br label %if.end48

if.end48:                                         ; preds = %if.then47, %if.then44
  store i32 -1, ptr %retval, align 4
  br label %return

if.end49:                                         ; preds = %if.end38
  store i32 0, ptr %retval, align 4
  br label %return

return:                                           ; preds = %if.end49, %if.end48, %if.then17, %if.then10
  %24 = load i32, ptr %retval, align 4
  ret i32 %24
}