; Function Attrs: mustprogress uwtable
define noundef i32 @_ZN3zmq11ws_engine_t15decode_and_pushEPNS_5msg_tE(ptr noundef nonnull align 8 dereferenceable(25696) %this, ptr noundef %msg_) unnamed_addr #0 align 2 {
entry:
  %_mechanism = getelementptr inbounds i8, ptr %this, i64 1408
  %0 = load ptr, ptr %_mechanism, align 8
  %cmp.not = icmp eq ptr %0, null
  br i1 %cmp.not, label %if.then, label %do.end

if.then:                                          ; preds = %entry
  %1 = load ptr, ptr @stderr, align 8
  %call = tail call i32 (ptr, ptr, ...) @fprintf(ptr noundef %1, ptr noundef nonnull @.str.18, ptr noundef nonnull @.str.19, ptr noundef nonnull @.str.5, i32 noundef 888) #23
  %2 = load ptr, ptr @stderr, align 8
  %call2 = tail call i32 @fflush(ptr noundef %2)
  tail call void @_ZN3zmq9zmq_abortEPKc(ptr noundef nonnull @.str.19)
  br label %do.end

do.end:                                           ; preds = %entry, %if.then
  %call3 = tail call noundef zeroext i1 @_ZNK3zmq5msg_t7is_pingEv(ptr noundef nonnull align 8 dereferenceable(64) %msg_)
  br i1 %call3, label %if.then7, label %lor.lhs.false

lor.lhs.false:                                    ; preds = %do.end
  %call4 = tail call noundef zeroext i1 @_ZNK3zmq5msg_t7is_pongEv(ptr noundef nonnull align 8 dereferenceable(64) %msg_)
  br i1 %call4, label %if.then7, label %lor.lhs.false5

lor.lhs.false5:                                   ; preds = %lor.lhs.false
  %call6 = tail call noundef zeroext i1 @_ZNK3zmq5msg_t12is_close_cmdEv(ptr noundef nonnull align 8 dereferenceable(64) %msg_)
  br i1 %call6, label %if.then7, label %if.else

if.then7:                                         ; preds = %lor.lhs.false5, %lor.lhs.false, %do.end
  %vtable = load ptr, ptr %this, align 8
  %vfn = getelementptr inbounds i8, ptr %vtable, i64 128
  %3 = load ptr, ptr %vfn, align 8
  %call8 = tail call noundef i32 %3(ptr noundef nonnull align 8 dereferenceable(25696) %this, ptr noundef nonnull %msg_)
  %cmp9 = icmp eq i32 %call8, -1
  br i1 %cmp9, label %return, label %if.end19

if.else:                                          ; preds = %lor.lhs.false5
  %4 = load ptr, ptr %_mechanism, align 8
  %vtable13 = load ptr, ptr %4, align 8
  %vfn14 = getelementptr inbounds i8, ptr %vtable13, i64 40
  %5 = load ptr, ptr %vfn14, align 8
  %call15 = tail call noundef i32 %5(ptr noundef nonnull align 8 dereferenceable(1488) %4, ptr noundef nonnull %msg_)
  %cmp16 = icmp eq i32 %call15, -1
  br i1 %cmp16, label %return, label %if.end19

if.end19:                                         ; preds = %if.else, %if.then7
  %_has_timeout_timer = getelementptr inbounds i8, ptr %this, i64 1538
  %6 = load i8, ptr %_has_timeout_timer, align 2
  %7 = and i8 %6, 1
  %tobool.not = icmp eq i8 %7, 0
  br i1 %tobool.not, label %if.end22, label %if.then20

if.then20:                                        ; preds = %if.end19
  store i8 0, ptr %_has_timeout_timer, align 2
  tail call void @_ZN3zmq11io_object_t12cancel_timerEi(ptr noundef nonnull align 8 dereferenceable(16) %this, i32 noundef 129)
  br label %if.end22

if.end22:                                         ; preds = %if.then20, %if.end19
  %call23 = tail call noundef zeroext i8 @_ZNK3zmq5msg_t5flagsEv(ptr noundef nonnull align 8 dereferenceable(64) %msg_)
  %8 = and i8 %call23, 2
  %tobool24.not = icmp eq i8 %8, 0
  br i1 %tobool24.not, label %if.end34, label %land.lhs.true

land.lhs.true:                                    ; preds = %if.end22
  %call25 = tail call noundef zeroext i1 @_ZNK3zmq5msg_t7is_pingEv(ptr noundef nonnull align 8 dereferenceable(64) %msg_)
  br i1 %call25, label %if.end34, label %land.lhs.true26

land.lhs.true26:                                  ; preds = %land.lhs.true
  %call27 = tail call noundef zeroext i1 @_ZNK3zmq5msg_t7is_pongEv(ptr noundef nonnull align 8 dereferenceable(64) %msg_)
  br i1 %call27, label %if.end34, label %land.lhs.true28

land.lhs.true28:                                  ; preds = %land.lhs.true26
  %call29 = tail call noundef zeroext i1 @_ZNK3zmq5msg_t12is_close_cmdEv(ptr noundef nonnull align 8 dereferenceable(64) %msg_)
  br i1 %call29, label %if.end34, label %if.then30

if.then30:                                        ; preds = %land.lhs.true28
  %vtable31 = load ptr, ptr %this, align 8
  %vfn32 = getelementptr inbounds i8, ptr %vtable31, i64 128
  %9 = load ptr, ptr %vfn32, align 8
  %call33 = tail call noundef i32 %9(ptr noundef nonnull align 8 dereferenceable(25696) %this, ptr noundef nonnull %msg_)
  br label %if.end34

if.end34:                                         ; preds = %if.then30, %land.lhs.true28, %land.lhs.true26, %land.lhs.true, %if.end22
  %_metadata = getelementptr inbounds i8, ptr %this, i64 1448
  %10 = load ptr, ptr %_metadata, align 8
  %tobool35.not = icmp eq ptr %10, null
  br i1 %tobool35.not, label %if.end38, label %if.then36

if.then36:                                        ; preds = %if.end34
  tail call void @_ZN3zmq5msg_t12set_metadataEPNS_10metadata_tE(ptr noundef nonnull align 8 dereferenceable(64) %msg_, ptr noundef nonnull %10)
  br label %if.end38

if.end38:                                         ; preds = %if.then36, %if.end34
  %_session.i = getelementptr inbounds i8, ptr %this, i64 1672
  %11 = load ptr, ptr %_session.i, align 8
  %vtable40 = load ptr, ptr %11, align 8
  %vfn41 = getelementptr inbounds i8, ptr %vtable40, i64 232
  %12 = load ptr, ptr %vfn41, align 8
  %call42 = tail call noundef i32 %12(ptr noundef nonnull align 8 dereferenceable(1624) %11, ptr noundef nonnull %msg_)
  %cmp43 = icmp eq i32 %call42, -1
  br i1 %cmp43, label %if.then44, label %return

if.then44:                                        ; preds = %if.end38
  %call45 = tail call ptr @__errno_location() #22
  %13 = load i32, ptr %call45, align 4
  %cmp46 = icmp eq i32 %13, 11
  br i1 %cmp46, label %if.then47, label %return

if.then47:                                        ; preds = %if.then44
  %_process_msg = getelementptr inbounds i8, ptr %this, i64 1432
  store i64 ptrtoint (ptr @_ZN3zmq20stream_engine_base_t29push_one_then_decode_and_pushEPNS_5msg_tE to i64), ptr %_process_msg, align 8
  %_process_msg.repack12 = getelementptr inbounds i8, ptr %this, i64 1440
  store i64 0, ptr %_process_msg.repack12, align 8
  br label %return

return:                                           ; preds = %if.end38, %if.then44, %if.then47, %if.else, %if.then7
  %retval.0 = phi i32 [ -1, %if.then7 ], [ -1, %if.else ], [ -1, %if.then47 ], [ -1, %if.then44 ], [ 0, %if.end38 ]
  ret i32 %retval.0
}